target datalayout = "e-m:e-p270:32:32-p271:32:32-p272:64:64-i64:64-i128:128-f80:128-n8:16:32:64-S128"
target triple = "x86_64-pc-linux-gnu"

%struct.assoc_mgr_lock_t = type { i32, i32, i32, i32, i32, i32, i32 }
%struct.jobacctinfo = type { i32, i64, i32, i64, i32, i32, %struct.acct_gather_energy, double, double, i32, i32, i32, ptr, ptr, ptr, ptr, ptr, ptr, ptr, ptr, ptr, ptr, ptr, ptr, ptr, ptr, ptr, ptr, %struct.jobacct_id_t, i32, double, double, i64, i64 }
%struct.acct_gather_energy = type { i32, i64, i64, i32, i64, i64, i64 }
%struct.jobacct_id_t = type { i32, i32, ptr }

@plugin_inited = internal global i32 0, align 4
@.str.8 = private unnamed_addr constant [17 x i8] c"jobacct_gather.c\00", align 1
@__func__.jobacctinfo_create = private unnamed_addr constant [19 x i8] c"jobacctinfo_create\00", align 1
@__const._jobacctinfo_create_tres_usage.locks = private unnamed_addr constant %struct.assoc_mgr_lock_t { i32 0, i32 0, i32 0, i32 0, i32 1, i32 0, i32 0 }, align 4
@g_tres_count = external global i32, align 4

; Function Attrs: nounwind uwtable
define internal void @_jobacctinfo_create_tres_usage(ptr noundef %0, ptr noundef %1) #0 {
  %3 = alloca ptr, align 8
  %4 = alloca ptr, align 8
  %5 = alloca %struct.assoc_mgr_lock_t, align 4
  store ptr %0, ptr %3, align 8
  store ptr %1, ptr %4, align 8
  call void @llvm.lifetime.start.p0(i64 28, ptr %5) #8
  call void @llvm.memcpy.p0.p0.i64(ptr align 4 %5, ptr align 4 @__const._jobacctinfo_create_tres_usage.locks, i64 28, i1 false)
  call void @assoc_mgr_lock(ptr noundef %5)
  %6 = load ptr, ptr %4, align 8
  %7 = load ptr, ptr %3, align 8
  %8 = load i32, ptr @g_tres_count, align 4
  call void @_init_tres_usage(ptr noundef %6, ptr noundef %7, i32 noundef %8)
  call void @assoc_mgr_unlock(ptr noundef %5)
  call void @llvm.lifetime.end.p0(i64 28, ptr %5) #8
  ret void
}

; Function Attrs: nounwind uwtable
define dso_local ptr @jobacctinfo_create(ptr noundef %0) #0 {
  %2 = alloca ptr, align 8
  %3 = alloca ptr, align 8
  %4 = alloca ptr, align 8
  %5 = alloca %struct.jobacct_id_t, align 8
  %6 = alloca i32, align 4
  store ptr %0, ptr %3, align 8
  call void @llvm.lifetime.start.p0(i64 8, ptr %4) #8
  call void @llvm.lifetime.start.p0(i64 16, ptr %5) #8
  %7 = load i32, ptr @plugin_inited, align 4
  %8 = icmp eq i32 %7, 1
  br i1 %8, label %9, label %10

9:                                                ; preds = %1
  store ptr null, ptr %2, align 8
  store i32 1, ptr %6, align 4
  br label %31

10:                                               ; preds = %1
  %11 = call ptr @slurm_xcalloc(i64 noundef 1, i64 noundef 312, i1 noundef zeroext true, i1 noundef zeroext false, ptr noundef @.str.8, i32 noundef 851, ptr noundef @__func__.jobacctinfo_create)
  store ptr %11, ptr %4, align 8
  %12 = load ptr, ptr %3, align 8
  %13 = icmp ne ptr %12, null
  br i1 %13, label %17, label %14

14:                                               ; preds = %10
  %15 = getelementptr inbounds nuw %struct.jobacct_id_t, ptr %5, i32 0, i32 0
  store i32 -2, ptr %15, align 8
  %16 = getelementptr inbounds nuw %struct.jobacct_id_t, ptr %5, i32 0, i32 1
  store i32 -2, ptr %16, align 4
  store ptr %5, ptr %3, align 8
  br label %17

17:                                               ; preds = %14, %10
  %18 = load ptr, ptr %4, align 8
  %19 = getelementptr inbounds nuw %struct.jobacctinfo, ptr %18, i32 0, i32 29
  store i32 -1, ptr %19, align 8
  %20 = load ptr, ptr %4, align 8
  %21 = getelementptr inbounds nuw %struct.jobacctinfo, ptr %20, i32 0, i32 1
  store i64 0, ptr %21, align 8
  %22 = load ptr, ptr %4, align 8
  %23 = getelementptr inbounds nuw %struct.jobacctinfo, ptr %22, i32 0, i32 2
  store i32 0, ptr %23, align 8
  %24 = load ptr, ptr %4, align 8
  %25 = getelementptr inbounds nuw %struct.jobacctinfo, ptr %24, i32 0, i32 3
  store i64 0, ptr %25, align 8
  %26 = load ptr, ptr %4, align 8
  %27 = getelementptr inbounds nuw %struct.jobacctinfo, ptr %26, i32 0, i32 4
  store i32 0, ptr %27, align 8
  %28 = load ptr, ptr %3, align 8
  %29 = load ptr, ptr %4, align 8
  call void @_jobacctinfo_create_tres_usage(ptr noundef %28, ptr noundef %29)
  %30 = load ptr, ptr %4, align 8
  store ptr %30, ptr %2, align 8
  store i32 1, ptr %6, align 4
  br label %31

31:                                               ; preds = %17, %9
  call void @llvm.lifetime.end.p0(i64 16, ptr %5) #8
  call void @llvm.lifetime.end.p0(i64 8, ptr %4) #8
  %32 = load ptr, ptr %2, align 8
  ret ptr %32
}