; Function Attrs: nounwind uwtable
define dso_local ptr @jobacctinfo_create(ptr noundef captures(address_is_null) %0) #0 {
  %2 = alloca %struct.assoc_mgr_lock_t, align 4
  %3 = alloca %struct.jobacct_id_t, align 8
  call void @llvm.lifetime.start.p0(i64 16, ptr nonnull %3) #10
  %4 = load i32, ptr @plugin_inited, align 4
  %5 = icmp eq i32 %4, 1
  br i1 %5, label %17, label %6

6:                                                ; preds = %1
  %7 = tail call ptr @slurm_xcalloc(i64 noundef 1, i64 noundef 312, i1 noundef zeroext true, i1 noundef zeroext false, ptr noundef nonnull @.str.8, i32 noundef 851, ptr noundef nonnull @__func__.jobacctinfo_create) #10
  %.not = icmp eq ptr %0, null
  br i1 %.not, label %8, label %10

8:                                                ; preds = %6
  store i32 -2, ptr %3, align 8
  %9 = getelementptr inbounds nuw i8, ptr %3, i64 4
  store i32 -2, ptr %9, align 4
  br label %10

10:                                               ; preds = %8, %6
  %.010 = phi ptr [ %0, %6 ], [ %3, %8 ]
  %11 = getelementptr inbounds nuw i8, ptr %7, i64 272
  store i32 -1, ptr %11, align 8
  %12 = getelementptr inbounds nuw i8, ptr %7, i64 8
  store i64 0, ptr %12, align 8
  %13 = getelementptr inbounds nuw i8, ptr %7, i64 16
  store i32 0, ptr %13, align 8
  %14 = getelementptr inbounds nuw i8, ptr %7, i64 24
  store i64 0, ptr %14, align 8
  %15 = getelementptr inbounds nuw i8, ptr %7, i64 32
  store i32 0, ptr %15, align 8
  call void @llvm.lifetime.start.p0(i64 28, ptr nonnull %2) #10
  call void @llvm.memcpy.p0.p0.i64(ptr noundef nonnull align 4 dereferenceable(28) %2, ptr noundef nonnull align 4 dereferenceable(28) @__const._jobacctinfo_2_stats_tres_usage.locks, i64 28, i1 false)
  call void @assoc_mgr_lock(ptr noundef nonnull %2) #10
  %16 = load i32, ptr @g_tres_count, align 4
  call fastcc void @_init_tres_usage(ptr noundef %7, ptr noundef nonnull %.010, i32 noundef %16)
  call void @assoc_mgr_unlock(ptr noundef nonnull %2) #10
  call void @llvm.lifetime.end.p0(i64 28, ptr nonnull %2) #10
  br label %17

17:                                               ; preds = %1, %10
  %.0 = phi ptr [ %7, %10 ], [ null, %1 ]
  call void @llvm.lifetime.end.p0(i64 16, ptr nonnull %3) #10
  ret ptr %.0
}